; ModuleID = 'source-C-CXX/27/1700.c'
source_filename = "source-C-CXX/27/1700.c"
target datalayout = "e-m:e-p270:32:32-p271:32:32-p272:64:64-i64:64-f80:128-n8:16:32:64-S128"
target triple = "x86_64-pc-linux-gnu"

@.str = private unnamed_addr constant [4 x i8] c"%d,\00", align 1
@.str.1 = private unnamed_addr constant [3 x i8] c"%d\00", align 1

; Function Attrs: nounwind sspstrong uwtable
define dso_local void @main() local_unnamed_addr #0 {
  %1 = alloca [10000 x i8], align 16
  %2 = alloca [512 x i32], align 16
  %3 = getelementptr inbounds [10000 x i8], [10000 x i8]* %1, i64 0, i64 0
  call void @llvm.lifetime.start.p0i8(i64 10000, i8* nonnull %3) #5
  %4 = bitcast [512 x i32]* %2 to i8*
  call void @llvm.lifetime.start.p0i8(i64 2048, i8* nonnull %4) #5
  call void @llvm.memset.p0i8.i64(i8* noundef nonnull align 16 dereferenceable(2048) %4, i8 0, i64 2048, i1 false)
  %5 = call i32 (i8*, ...) bitcast (i32 (...)* @gets to i32 (i8*, ...)*)(i8* nonnull %3) #5
  br label %6

6:                                                ; preds = %19, %0
  %7 = phi i64 [ %20, %19 ], [ 0, %0 ]
  %8 = phi i32 [ %29, %19 ], [ 0, %0 ]
  br label %9

9:                                                ; preds = %6, %13
  %10 = phi i64 [ %14, %13 ], [ %7, %6 ]
  %11 = getelementptr inbounds [10000 x i8], [10000 x i8]* %1, i64 0, i64 %10
  %12 = load i8, i8* %11, align 1, !tbaa !5
  switch i8 %12, label %19 [
    i8 0, label %15
    i8 32, label %13
  ]

13:                                               ; preds = %9
  %14 = add nuw i64 %10, 1
  br label %9, !llvm.loop !8

15:                                               ; preds = %9
  %16 = icmp eq i32 %8, 0
  br i1 %16, label %37, label %17

17:                                               ; preds = %15
  %18 = zext i32 %8 to i64
  br label %30

19:                                               ; preds = %9
  %20 = add nuw i64 %10, 1
  %21 = getelementptr inbounds [10000 x i8], [10000 x i8]* %1, i64 0, i64 %20
  %22 = load i8, i8* %21, align 1, !tbaa !5
  %23 = icmp eq i8 %22, 32
  %24 = zext i32 %8 to i64
  %25 = getelementptr inbounds [512 x i32], [512 x i32]* %2, i64 0, i64 %24
  %26 = load i32, i32* %25, align 4, !tbaa !10
  %27 = add nsw i32 %26, 1
  store i32 %27, i32* %25, align 4, !tbaa !10
  %28 = zext i1 %23 to i32
  %29 = add nuw nsw i32 %8, %28
  br label %6, !llvm.loop !8

30:                                               ; preds = %17, %30
  %31 = phi i64 [ 0, %17 ], [ %35, %30 ]
  %32 = getelementptr inbounds [512 x i32], [512 x i32]* %2, i64 0, i64 %31
  %33 = load i32, i32* %32, align 4, !tbaa !10
  %34 = call i32 (i8*, ...) @printf(i8* nonnull dereferenceable(1) getelementptr inbounds ([4 x i8], [4 x i8]* @.str, i64 0, i64 0), i32 %33)
  %35 = add nuw nsw i64 %31, 1
  %36 = icmp eq i64 %35, %18
  br i1 %36, label %37, label %30, !llvm.loop !12

37:                                               ; preds = %30, %15
  %38 = phi i32 [ 0, %15 ], [ %8, %30 ]
  %39 = zext i32 %38 to i64
  %40 = getelementptr inbounds [512 x i32], [512 x i32]* %2, i64 0, i64 %39
  %41 = load i32, i32* %40, align 4, !tbaa !10
  %42 = call i32 (i8*, ...) @printf(i8* nonnull dereferenceable(1) getelementptr inbounds ([3 x i8], [3 x i8]* @.str.1, i64 0, i64 0), i32 %41)
  call void @llvm.lifetime.end.p0i8(i64 2048, i8* nonnull %4) #5
  call void @llvm.lifetime.end.p0i8(i64 10000, i8* nonnull %3) #5
  ret void
}

; Function Attrs: argmemonly mustprogress nofree nosync nounwind willreturn
declare void @llvm.lifetime.start.p0i8(i64 immarg, i8* nocapture) #1

; Function Attrs: argmemonly mustprogress nofree nounwind willreturn writeonly
declare void @llvm.memset.p0i8.i64(i8* nocapture writeonly, i8, i64, i1 immarg) #2

declare i32 @gets(...) local_unnamed_addr #3

; Function Attrs: nofree nounwind
declare noundef i32 @printf(i8* nocapture noundef readonly, ...) local_unnamed_addr #4

; Function Attrs: argmemonly mustprogress nofree nosync nounwind willreturn
declare void @llvm.lifetime.end.p0i8(i64 immarg, i8* nocapture) #1


!llvm.module.flags = !{!0, !1, !2, !3}
!llvm.ident = !{!4}

!0 = !{i32 1, !"wchar_size", i32 4}
!1 = !{i32 7, !"PIC Level", i32 2}
!2 = !{i32 7, !"PIE Level", i32 2}
!3 = !{i32 7, !"uwtable", i32 1}
!4 = !{!"clang version 13.0.0"}
!5 = !{!6, !6, i64 0}
!6 = !{!"omnipotent char", !7, i64 0}
!7 = !{!"Simple C/C++ TBAA"}
!8 = distinct !{!8, !9}
!9 = !{!"llvm.loop.mustprogress"}
!10 = !{!11, !11, i64 0}
!11 = !{!"int", !6, i64 0}
!12 = distinct !{!12, !9}
